target datalayout = "e-m:e-p270:32:32-p271:32:32-p272:64:64-i64:64-i128:128-f80:128-n8:16:32:64-S128"
target triple = "x86_64-pc-linux-gnu"

%struct.AF_ModuleRec_ = type { %struct.FT_ModuleRec_, i32, i32, i8, [8 x i32] }
%struct.FT_ModuleRec_ = type { ptr, ptr, ptr }

; Function Attrs: nounwind uwtable
define internal i32 @af_autofitter_init(ptr noundef %0) #0 {
  %2 = alloca ptr, align 8
  %3 = alloca ptr, align 8
  store ptr %0, ptr %2, align 8, !tbaa !118
  call void @llvm.lifetime.start.p0(i64 8, ptr %3) #10
  %4 = load ptr, ptr %2, align 8, !tbaa !118
  store ptr %4, ptr %3, align 8, !tbaa !102
  %5 = load ptr, ptr %3, align 8, !tbaa !102
  %6 = getelementptr inbounds nuw %struct.AF_ModuleRec_, ptr %5, i32 0, i32 1
  store i32 86, ptr %6, align 8, !tbaa !120
  %7 = load ptr, ptr %3, align 8, !tbaa !102
  %8 = getelementptr inbounds nuw %struct.AF_ModuleRec_, ptr %7, i32 0, i32 2
  store i32 30, ptr %8, align 4, !tbaa !121
  %9 = load ptr, ptr %3, align 8, !tbaa !102
  %10 = getelementptr inbounds nuw %struct.AF_ModuleRec_, ptr %9, i32 0, i32 3
  store i8 1, ptr %10, align 8, !tbaa !122
  %11 = load ptr, ptr %3, align 8, !tbaa !102
  %12 = getelementptr inbounds nuw %struct.AF_ModuleRec_, ptr %11, i32 0, i32 4
  %13 = getelementptr inbounds [8 x i32], ptr %12, i64 0, i64 0
  store i32 500, ptr %13, align 4, !tbaa !43
  %14 = load ptr, ptr %3, align 8, !tbaa !102
  %15 = getelementptr inbounds nuw %struct.AF_ModuleRec_, ptr %14, i32 0, i32 4
  %16 = getelementptr inbounds [8 x i32], ptr %15, i64 0, i64 1
  store i32 400, ptr %16, align 4, !tbaa !43
  %17 = load ptr, ptr %3, align 8, !tbaa !102
  %18 = getelementptr inbounds nuw %struct.AF_ModuleRec_, ptr %17, i32 0, i32 4
  %19 = getelementptr inbounds [8 x i32], ptr %18, i64 0, i64 2
  store i32 1000, ptr %19, align 4, !tbaa !43
  %20 = load ptr, ptr %3, align 8, !tbaa !102
  %21 = getelementptr inbounds nuw %struct.AF_ModuleRec_, ptr %20, i32 0, i32 4
  %22 = getelementptr inbounds [8 x i32], ptr %21, i64 0, i64 3
  store i32 275, ptr %22, align 4, !tbaa !43
  %23 = load ptr, ptr %3, align 8, !tbaa !102
  %24 = getelementptr inbounds nuw %struct.AF_ModuleRec_, ptr %23, i32 0, i32 4
  %25 = getelementptr inbounds [8 x i32], ptr %24, i64 0, i64 4
  store i32 1667, ptr %25, align 4, !tbaa !43
  %26 = load ptr, ptr %3, align 8, !tbaa !102
  %27 = getelementptr inbounds nuw %struct.AF_ModuleRec_, ptr %26, i32 0, i32 4
  %28 = getelementptr inbounds [8 x i32], ptr %27, i64 0, i64 5
  store i32 275, ptr %28, align 4, !tbaa !43
  %29 = load ptr, ptr %3, align 8, !tbaa !102
  %30 = getelementptr inbounds nuw %struct.AF_ModuleRec_, ptr %29, i32 0, i32 4
  %31 = getelementptr inbounds [8 x i32], ptr %30, i64 0, i64 6
  store i32 2333, ptr %31, align 4, !tbaa !43
  %32 = load ptr, ptr %3, align 8, !tbaa !102
  %33 = getelementptr inbounds nuw %struct.AF_ModuleRec_, ptr %32, i32 0, i32 4
  %34 = getelementptr inbounds [8 x i32], ptr %33, i64 0, i64 7
  store i32 0, ptr %34, align 4, !tbaa !43
  call void @llvm.lifetime.end.p0(i64 8, ptr %3) #10
  ret i32 0
}